target datalayout = "e-m:e-p270:32:32-p271:32:32-p272:64:64-i64:64-i128:128-f80:128-n8:16:32:64-S128"
target triple = "x86_64-pc-linux-gnu"

; Function Attrs: nounwind uwtable
define internal float @log10_scale_callback(ptr noundef %0, float noundef %1, i32 noundef %2) #0 {
  %4 = alloca ptr, align 8
  %5 = alloca float, align 4
  %6 = alloca i32, align 4
  %7 = alloca float, align 4
  %8 = alloca float, align 4
  store ptr %0, ptr %4, align 8, !tbaa !11
  store float %1, ptr %5, align 4, !tbaa !83
  store i32 %2, ptr %6, align 4, !tbaa !80
  call void @llvm.lifetime.start.p0(i64 4, ptr %7) #11
  store float 0.000000e+00, ptr %7, align 4, !tbaa !83
  call void @llvm.lifetime.start.p0(i64 4, ptr %8) #11
  store float 0x3F1A36E2E0000000, ptr %8, align 4, !tbaa !83
  %9 = load i32, ptr %6, align 4, !tbaa !80
  switch i32 %9, label %67 [
    i32 1, label %10
    i32 2, label %29
  ]

10:                                               ; preds = %3
  %11 = load float, ptr %5, align 4, !tbaa !83
  %12 = fcmp reassoc nsz arcp contract afn ogt float %11, 1.000000e+00
  br i1 %12, label %13, label %14

13:                                               ; preds = %10
  br label %22

14:                                               ; preds = %10
  %15 = load float, ptr %5, align 4, !tbaa !83
  %16 = fcmp reassoc nsz arcp contract afn olt float %15, 0x3F1A36E2E0000000
  br i1 %16, label %17, label %18

17:                                               ; preds = %14
  br label %20

18:                                               ; preds = %14
  %19 = load float, ptr %5, align 4, !tbaa !83
  br label %20

20:                                               ; preds = %18, %17
  %21 = phi reassoc nsz arcp contract afn float [ 0x3F1A36E2E0000000, %17 ], [ %19, %18 ]
  br label %22

22:                                               ; preds = %20, %13
  %23 = phi reassoc nsz arcp contract afn float [ 1.000000e+00, %13 ], [ %21, %20 ]
  %24 = fpext reassoc nsz arcp contract afn float %23 to double
  %25 = call reassoc nsz arcp contract afn double @llvm.log10.f64(double %24)
  %26 = fadd reassoc nsz arcp contract afn double %25, 4.000000e+00
  %27 = fdiv reassoc nsz arcp contract afn double %26, 4.000000e+00
  %28 = fptrunc reassoc nsz arcp contract afn double %27 to float
  store float %28, ptr %7, align 4, !tbaa !83
  br label %69

29:                                               ; preds = %3
  %30 = load float, ptr %5, align 4, !tbaa !83
  %31 = fmul reassoc nsz arcp contract afn float 4.000000e+00, %30
  %32 = fsub reassoc nsz arcp contract afn float %31, 4.000000e+00
  %33 = fpext reassoc nsz arcp contract afn float %32 to double
  %34 = fmul reassoc nsz arcp contract afn double 0x40026BB1BBB55516, %33
  %35 = call reassoc nsz arcp contract afn double @llvm.exp.f64(double %34)
  %36 = fcmp reassoc nsz arcp contract afn ogt double %35, 1.000000e+00
  br i1 %36, label %37, label %38

37:                                               ; preds = %29
  br label %56

38:                                               ; preds = %29
  %39 = load float, ptr %5, align 4, !tbaa !83
  %40 = fmul reassoc nsz arcp contract afn float 4.000000e+00, %39
  %41 = fsub reassoc nsz arcp contract afn float %40, 4.000000e+00
  %42 = fpext reassoc nsz arcp contract afn float %41 to double
  %43 = fmul reassoc nsz arcp contract afn double 0x40026BB1BBB55516, %42
  %44 = call reassoc nsz arcp contract afn double @llvm.exp.f64(double %43)
  %45 = fcmp reassoc nsz arcp contract afn olt double %44, 0.000000e+00
  br i1 %45, label %46, label %47

46:                                               ; preds = %38
  br label %54

47:                                               ; preds = %38
  %48 = load float, ptr %5, align 4, !tbaa !83
  %49 = fmul reassoc nsz arcp contract afn float 4.000000e+00, %48
  %50 = fsub reassoc nsz arcp contract afn float %49, 4.000000e+00
  %51 = fpext reassoc nsz arcp contract afn float %50 to double
  %52 = fmul reassoc nsz arcp contract afn double 0x40026BB1BBB55516, %51
  %53 = call reassoc nsz arcp contract afn double @llvm.exp.f64(double %52)
  br label %54

54:                                               ; preds = %47, %46
  %55 = phi reassoc nsz arcp contract afn double [ 0.000000e+00, %46 ], [ %53, %47 ]
  br label %56

56:                                               ; preds = %54, %37
  %57 = phi reassoc nsz arcp contract afn double [ 1.000000e+00, %37 ], [ %55, %54 ]
  %58 = fptrunc reassoc nsz arcp contract afn double %57 to float
  store float %58, ptr %7, align 4, !tbaa !83
  %59 = load float, ptr %7, align 4, !tbaa !83
  %60 = fcmp reassoc nsz arcp contract afn ole float %59, 0x3F1A36E2E0000000
  br i1 %60, label %61, label %62

61:                                               ; preds = %56
  store float 0.000000e+00, ptr %7, align 4, !tbaa !83
  br label %62

62:                                               ; preds = %61, %56
  %63 = load float, ptr %7, align 4, !tbaa !83
  %64 = fcmp reassoc nsz arcp contract afn oge float %63, 0x3FEFFF2E40000000
  br i1 %64, label %65, label %66

65:                                               ; preds = %62
  store float 1.000000e+00, ptr %7, align 4, !tbaa !83
  br label %66

66:                                               ; preds = %65, %62
  br label %69

67:                                               ; preds = %3
  %68 = load float, ptr %5, align 4, !tbaa !83
  store float %68, ptr %7, align 4, !tbaa !83
  br label %69

69:                                               ; preds = %67, %66, %22
  %70 = load float, ptr %7, align 4, !tbaa !83
  call void @llvm.lifetime.end.p0(i64 4, ptr %8) #11
  call void @llvm.lifetime.end.p0(i64 4, ptr %7) #11
  ret float %70
}