; Function Attrs: mustprogress nofree norecurse nosync nounwind willreturn memory(none) uwtable
define internal float @log10_scale_callback(ptr readnone captures(none) %0, float noundef %1, i32 noundef %2) #14 {
  switch i32 %2, label %25 [
    i32 1, label %4
    i32 2, label %14
  ]

4:                                                ; preds = %3
  %5 = fcmp reassoc nsz arcp contract afn ogt float %1, 1.000000e+00
  %6 = fcmp reassoc nsz arcp contract afn olt float %1, 0x3F1A36E2E0000000
  %7 = select reassoc nsz arcp contract afn i1 %6, float 0x3F1A36E2E0000000, float %1
  %8 = select reassoc nsz arcp contract afn i1 %5, float 1.000000e+00, float %7
  %9 = fpext reassoc nsz arcp contract afn float %8 to double
  %10 = tail call reassoc nsz arcp contract afn double @llvm.log10.f64(double %9)
  %11 = fmul reassoc nsz arcp contract afn double %10, 2.500000e-01
  %12 = fadd reassoc nsz arcp contract afn double %11, 1.000000e+00
  %13 = fptrunc reassoc nsz arcp contract afn double %12 to float
  br label %25

14:                                               ; preds = %3
  %15 = fmul reassoc nsz arcp contract afn float %1, 4.000000e+00
  %16 = fadd reassoc nsz arcp contract afn float %15, -4.000000e+00
  %17 = fpext reassoc nsz arcp contract afn float %16 to double
  %18 = fmul reassoc nsz arcp contract afn double %17, 0x40026BB1BBB55516
  %19 = tail call reassoc nsz arcp contract afn double @llvm.exp.f64(double %18)
  %.inv = fcmp reassoc nsz arcp contract afn oge double %19, 1.000000e+00
  %20 = select reassoc nsz arcp contract afn i1 %.inv, double 1.000000e+00, double %19
  %21 = fptrunc double %20 to float
  %22 = fcmp reassoc nsz arcp contract afn ugt float %21, 0x3F1A36E2E0000000
  %.1 = select nsz i1 %22, float %21, float 0.000000e+00
  %23 = fcmp reassoc nsz arcp contract afn ult float %.1, 0x3FEFFF2E40000000
  br i1 %23, label %25, label %24

24:                                               ; preds = %14
  br label %25

25:                                               ; preds = %3, %14, %24, %4
  %.0 = phi nsz float [ 1.000000e+00, %24 ], [ %.1, %14 ], [ %13, %4 ], [ %1, %3 ]
  ret float %.0
}